(dp0
(I3
I2
I16
I5
I2
I16
tp1
(dp2
I0
(dp3
S'train_acc'
p4
F15.384615384615385
sS'val_acc'
p5
F16.091954022988507
ssI640
(dp6
g4
F57.967032967032964
sg5
F47.12643678160919
ssI260
(dp7
g4
F46.15384615384615
sg5
F39.08045977011494
ssI520
(dp8
g4
F56.86813186813187
sg5
F43.67816091954023
ssI940
(dp9
g4
F72.52747252747253
sg5
F52.87356321839081
ssI140
(dp10
g4
F38.46153846153846
sg5
F34.48275862068966
ssI400
(dp11
g4
F52.1978021978022
sg5
F43.67816091954023
ssI920
(dp12
g4
F72.52747252747253
sg5
F52.87356321839081
ssI20
(dp13
g4
F15.384615384615385
sg5
F16.091954022988507
ssI280
(dp14
g4
F46.15384615384615
sg5
F39.08045977011494
ssI900
(dp15
g4
F72.52747252747253
sg5
F52.87356321839081
ssI540
(dp16
g4
F56.86813186813187
sg5
F43.67816091954023
ssI160
(dp17
g4
F38.46153846153846
sg5
F34.48275862068966
ssI880
(dp18
g4
F65.93406593406593
sg5
F50.57471264367816
ssI420
(dp19
g4
F52.1978021978022
sg5
F43.67816091954023
ssI40
(dp20
g4
F15.384615384615385
sg5
F16.091954022988507
ssI860
(dp21
g4
F65.93406593406593
sg5
F50.57471264367816
ssI300
(dp22
g4
F53.84615384615385
sg5
F42.52873563218391
ssI560
(dp23
g4
F56.86813186813187
sg5
F43.67816091954023
ssI840
(dp24
g4
F65.93406593406593
sg5
F50.57471264367816
ssI180
(dp25
g4
F38.46153846153846
sg5
F34.48275862068966
ssI960
(dp26
g4
F72.52747252747253
sg5
F52.87356321839081
ssI440
(dp27
g4
F52.1978021978022
sg5
F43.67816091954023
ssI820
(dp28
g4
F65.93406593406593
sg5
F50.57471264367816
ssI60
(dp29
g4
F15.384615384615385
sg5
F16.091954022988507
ssI320
(dp30
g4
F53.84615384615385
sg5
F42.52873563218391
ssI800
(dp31
g4
F65.93406593406593
sg5
F50.57471264367816
ssI580
(dp32
g4
F56.86813186813187
sg5
F43.67816091954023
ssI200
(dp33
g4
F46.15384615384615
sg5
F39.08045977011494
ssI780
(dp34
g4
F61.81318681318681
sg5
F49.42528735632184
ssI460
(dp35
g4
F52.1978021978022
sg5
F43.67816091954023
ssI80
(dp36
g4
F15.384615384615385
sg5
F16.091954022988507
ssI760
(dp37
g4
F61.81318681318681
sg5
F49.42528735632184
ssI340
(dp38
g4
F53.84615384615385
sg5
F42.52873563218391
ssI1000
(dp39
g4
F69.50549450549451
sg5
F52.87356321839081
ssI600
(dp40
g4
F57.967032967032964
sg5
F47.12643678160919
ssI740
(dp41
g4
F61.81318681318681
sg5
F49.42528735632184
ssI220
(dp42
g4
F46.15384615384615
sg5
F39.08045977011494
ssI480
(dp43
g4
F52.1978021978022
sg5
F43.67816091954023
ssI720
(dp44
g4
F61.81318681318681
sg5
F49.42528735632184
ssI100
(dp45
g4
F38.46153846153846
sg5
F34.48275862068966
ssI360
(dp46
g4
F53.84615384615385
sg5
F42.52873563218391
ssI700
(dp47
g4
F61.81318681318681
sg5
F49.42528735632184
ssI620
(dp48
g4
F57.967032967032964
sg5
F47.12643678160919
ssI980
(dp49
g4
F72.52747252747253
sg5
F52.87356321839081
ssI240
(dp50
g4
F46.15384615384615
sg5
F39.08045977011494
ssI680
(dp51
g4
F57.967032967032964
sg5
F47.12643678160919
ssI500
(dp52
g4
F56.86813186813187
sg5
F43.67816091954023
ssI120
(dp53
g4
F38.46153846153846
sg5
F34.48275862068966
ssI660
(dp54
g4
F57.967032967032964
sg5
F47.12643678160919
ssI380
(dp55
g4
F53.84615384615385
sg5
F42.52873563218391
sss(I3
I1
I16
I5
I2
I16
tp56
(dp57
I0
(dp58
S'train_acc'
p59
F15.384615384615385
sS'val_acc'
p60
F16.091954022988507
ssI640
(dp61
g59
F62.08791208791209
sg60
F45.97701149425287
ssI260
(dp62
g59
F43.13186813186813
sg60
F35.632183908045974
ssI520
(dp63
g59
F59.61538461538461
sg60
F45.97701149425287
ssI940
(dp64
g59
F76.37362637362638
sg60
F51.724137931034484
ssI140
(dp65
g59
F41.20879120879121
sg60
F34.48275862068966
ssI400
(dp66
g59
F51.64835164835165
sg60
F39.08045977011494
ssI920
(dp67
g59
F76.37362637362638
sg60
F51.724137931034484
ssI20
(dp68
g59
F15.384615384615385
sg60
F16.091954022988507
ssI280
(dp69
g59
F43.13186813186813
sg60
F35.632183908045974
ssI900
(dp70
g59
F76.37362637362638
sg60
F51.724137931034484
ssI540
(dp71
g59
F59.61538461538461
sg60
F45.97701149425287
ssI160
(dp72
g59
F41.20879120879121
sg60
F34.48275862068966
ssI240
(dp73
g59
F43.13186813186813
sg60
F35.632183908045974
ssI420
(dp74
g59
F51.64835164835165
sg60
F39.08045977011494
ssI40
(dp75
g59
F15.384615384615385
sg60
F16.091954022988507
ssI220
(dp76
g59
F43.13186813186813
sg60
F35.632183908045974
ssI300
(dp77
g59
F53.84615384615385
sg60
F37.93103448275862
ssI560
(dp78
g59
F59.61538461538461
sg60
F45.97701149425287
ssI200
(dp79
g59
F43.13186813186813
sg60
F35.632183908045974
ssI180
(dp80
g59
F41.20879120879121
sg60
F34.48275862068966
ssI440
(dp81
g59
F51.64835164835165
sg60
F39.08045977011494
ssI820
(dp82
g59
F70.32967032967034
sg60
F54.02298850574713
ssI60
(dp83
g59
F15.384615384615385
sg60
F16.091954022988507
ssI960
(dp84
g59
F76.37362637362638
sg60
F51.724137931034484
ssI800
(dp85
g59
F70.32967032967034
sg60
F54.02298850574713
ssI580
(dp86
g59
F59.61538461538461
sg60
F45.97701149425287
ssI840
(dp87
g59
F70.32967032967034
sg60
F54.02298850574713
ssI780
(dp88
g59
F64.01098901098901
sg60
F45.97701149425287
ssI680
(dp89
g59
F62.08791208791209
sg60
F45.97701149425287
ssI460
(dp90
g59
F51.64835164835165
sg60
F39.08045977011494
ssI80
(dp91
g59
F15.384615384615385
sg60
F16.091954022988507
ssI320
(dp92
g59
F53.84615384615385
sg60
F37.93103448275862
ssI340
(dp93
g59
F53.84615384615385
sg60
F37.93103448275862
ssI600
(dp94
g59
F62.08791208791209
sg60
F45.97701149425287
ssI100
(dp95
g59
F41.20879120879121
sg60
F34.48275862068966
ssI860
(dp96
g59
F70.32967032967034
sg60
F54.02298850574713
ssI480
(dp97
g59
F51.64835164835165
sg60
F39.08045977011494
ssI720
(dp98
g59
F64.01098901098901
sg60
F45.97701149425287
ssI740
(dp99
g59
F64.01098901098901
sg60
F45.97701149425287
ssI1000
(dp100
g59
F78.84615384615384
sg60
F58.62068965517241
ssI700
(dp101
g59
F64.01098901098901
sg60
F45.97701149425287
ssI620
(dp102
g59
F62.08791208791209
sg60
F45.97701149425287
ssI880
(dp103
g59
F70.32967032967034
sg60
F54.02298850574713
ssI360
(dp104
g59
F53.84615384615385
sg60
F37.93103448275862
ssI660
(dp105
g59
F62.08791208791209
sg60
F45.97701149425287
ssI500
(dp106
g59
F59.61538461538461
sg60
F45.97701149425287
ssI760
(dp107
g59
F64.01098901098901
sg60
F45.97701149425287
ssI980
(dp108
g59
F76.37362637362638
sg60
F51.724137931034484
ssI380
(dp109
g59
F53.84615384615385
sg60
F37.93103448275862
ssI120
(dp110
g59
F41.20879120879121
sg60
F34.48275862068966
sss(I5
I2
I16
I5
I2
I16
tp111
(dp112
I0
(dp113
g4
F15.384615384615385
sg5
F16.091954022988507
ssI640
(dp114
g4
F62.91208791208791
sg5
F52.87356321839081
ssI260
(dp115
g4
F47.252747252747255
sg5
F41.37931034482759
ssI520
(dp116
g4
F65.65934065934066
sg5
F54.02298850574713
ssI940
(dp117
g4
F77.1978021978022
sg5
F65.51724137931035
ssI140
(dp118
g4
F47.527472527472526
sg5
F45.97701149425287
ssI400
(dp119
g4
F55.494505494505496
sg5
F45.97701149425287
ssI920
(dp120
g4
F77.1978021978022
sg5
F65.51724137931035
ssI20
(dp121
g4
F15.384615384615385
sg5
F16.091954022988507
ssI280
(dp122
g4
F47.252747252747255
sg5
F41.37931034482759
ssI900
(dp123
g4
F77.1978021978022
sg5
F65.51724137931035
ssI540
(dp124
g4
F65.65934065934066
sg5
F54.02298850574713
ssI160
(dp125
g4
F47.527472527472526
sg5
F45.97701149425287
ssI880
(dp126
g4
F74.45054945054945
sg5
F64.36781609195403
ssI420
(dp127
g4
F55.494505494505496
sg5
F45.97701149425287
ssI40
(dp128
g4
F15.384615384615385
sg5
F16.091954022988507
ssI860
(dp129
g4
F74.45054945054945
sg5
F64.36781609195403
ssI300
(dp130
g4
F57.142857142857146
sg5
F47.12643678160919
ssI560
(dp131
g4
F65.65934065934066
sg5
F54.02298850574713
ssI840
(dp132
g4
F74.45054945054945
sg5
F64.36781609195403
ssI180
(dp133
g4
F47.527472527472526
sg5
F45.97701149425287
ssI960
(dp134
g4
F77.1978021978022
sg5
F65.51724137931035
ssI440
(dp135
g4
F55.494505494505496
sg5
F45.97701149425287
ssI820
(dp136
g4
F74.45054945054945
sg5
F64.36781609195403
ssI60
(dp137
g4
F15.384615384615385
sg5
F16.091954022988507
ssI320
(dp138
g4
F57.142857142857146
sg5
F47.12643678160919
ssI800
(dp139
g4
F74.45054945054945
sg5
F64.36781609195403
ssI580
(dp140
g4
F65.65934065934066
sg5
F54.02298850574713
ssI200
(dp141
g4
F47.252747252747255
sg5
F41.37931034482759
ssI780
(dp142
g4
F67.58241758241758
sg5
F50.57471264367816
ssI460
(dp143
g4
F55.494505494505496
sg5
F45.97701149425287
ssI80
(dp144
g4
F15.384615384615385
sg5
F16.091954022988507
ssI760
(dp145
g4
F67.58241758241758
sg5
F50.57471264367816
ssI340
(dp146
g4
F57.142857142857146
sg5
F47.12643678160919
ssI1000
(dp147
g4
F76.0989010989011
sg5
F59.770114942528735
ssI600
(dp148
g4
F62.91208791208791
sg5
F52.87356321839081
ssI740
(dp149
g4
F67.58241758241758
sg5
F50.57471264367816
ssI220
(dp150
g4
F47.252747252747255
sg5
F41.37931034482759
ssI480
(dp151
g4
F55.494505494505496
sg5
F45.97701149425287
ssI720
(dp152
g4
F67.58241758241758
sg5
F50.57471264367816
ssI100
(dp153
g4
F47.527472527472526
sg5
F45.97701149425287
ssI360
(dp154
g4
F57.142857142857146
sg5
F47.12643678160919
ssI700
(dp155
g4
F67.58241758241758
sg5
F50.57471264367816
ssI620
(dp156
g4
F62.91208791208791
sg5
F52.87356321839081
ssI980
(dp157
g4
F77.1978021978022
sg5
F65.51724137931035
ssI240
(dp158
g4
F47.252747252747255
sg5
F41.37931034482759
ssI680
(dp159
g4
F62.91208791208791
sg5
F52.87356321839081
ssI500
(dp160
g4
F65.65934065934066
sg5
F54.02298850574713
ssI120
(dp161
g4
F47.527472527472526
sg5
F45.97701149425287
ssI660
(dp162
g4
F62.91208791208791
sg5
F52.87356321839081
ssI380
(dp163
g4
F57.142857142857146
sg5
F47.12643678160919
sss(I4
I2
I16
I5
I2
I16
tp164
(dp165
I0
(dp166
g4
F15.384615384615385
sg5
F16.091954022988507
ssI640
(dp167
g4
F68.68131868131869
sg5
F52.87356321839081
ssI260
(dp168
g4
F50.27472527472528
sg5
F43.67816091954023
ssI520
(dp169
g4
F65.93406593406593
sg5
F52.87356321839081
ssI940
(dp170
g4
F76.64835164835165
sg5
F70.11494252873563
ssI140
(dp171
g4
F48.62637362637363
sg5
F49.42528735632184
ssI400
(dp172
g4
F60.43956043956044
sg5
F44.827586206896555
ssI920
(dp173
g4
F76.64835164835165
sg5
F70.11494252873563
ssI20
(dp174
g4
F15.384615384615385
sg5
F16.091954022988507
ssI280
(dp175
g4
F50.27472527472528
sg5
F43.67816091954023
ssI900
(dp176
g4
F76.64835164835165
sg5
F70.11494252873563
ssI540
(dp177
g4
F65.93406593406593
sg5
F52.87356321839081
ssI160
(dp178
g4
F48.62637362637363
sg5
F49.42528735632184
ssI880
(dp179
g4
F70.05494505494505
sg5
F63.2183908045977
ssI420
(dp180
g4
F60.43956043956044
sg5
F44.827586206896555
ssI40
(dp181
g4
F15.384615384615385
sg5
F16.091954022988507
ssI860
(dp182
g4
F70.05494505494505
sg5
F63.2183908045977
ssI300
(dp183
g4
F57.967032967032964
sg5
F47.12643678160919
ssI560
(dp184
g4
F65.93406593406593
sg5
F52.87356321839081
ssI840
(dp185
g4
F70.05494505494505
sg5
F63.2183908045977
ssI180
(dp186
g4
F48.62637362637363
sg5
F49.42528735632184
ssI960
(dp187
g4
F76.64835164835165
sg5
F70.11494252873563
ssI440
(dp188
g4
F60.43956043956044
sg5
F44.827586206896555
ssI820
(dp189
g4
F70.05494505494505
sg5
F63.2183908045977
ssI60
(dp190
g4
F15.384615384615385
sg5
F16.091954022988507
ssI320
(dp191
g4
F57.967032967032964
sg5
F47.12643678160919
ssI800
(dp192
g4
F70.05494505494505
sg5
F63.2183908045977
ssI580
(dp193
g4
F65.93406593406593
sg5
F52.87356321839081
ssI200
(dp194
g4
F50.27472527472528
sg5
F43.67816091954023
ssI780
(dp195
g4
F59.065934065934066
sg5
F54.02298850574713
ssI460
(dp196
g4
F60.43956043956044
sg5
F44.827586206896555
ssI80
(dp197
g4
F15.384615384615385
sg5
F16.091954022988507
ssI760
(dp198
g4
F59.065934065934066
sg5
F54.02298850574713
ssI340
(dp199
g4
F57.967032967032964
sg5
F47.12643678160919
ssI1000
(dp200
g4
F72.52747252747253
sg5
F64.36781609195403
ssI600
(dp201
g4
F68.68131868131869
sg5
F52.87356321839081
ssI740
(dp202
g4
F59.065934065934066
sg5
F54.02298850574713
ssI220
(dp203
g4
F50.27472527472528
sg5
F43.67816091954023
ssI480
(dp204
g4
F60.43956043956044
sg5
F44.827586206896555
ssI720
(dp205
g4
F59.065934065934066
sg5
F54.02298850574713
ssI100
(dp206
g4
F48.62637362637363
sg5
F49.42528735632184
ssI360
(dp207
g4
F57.967032967032964
sg5
F47.12643678160919
ssI700
(dp208
g4
F59.065934065934066
sg5
F54.02298850574713
ssI620
(dp209
g4
F68.68131868131869
sg5
F52.87356321839081
ssI980
(dp210
g4
F76.64835164835165
sg5
F70.11494252873563
ssI240
(dp211
g4
F50.27472527472528
sg5
F43.67816091954023
ssI680
(dp212
g4
F68.68131868131869
sg5
F52.87356321839081
ssI500
(dp213
g4
F65.93406593406593
sg5
F52.87356321839081
ssI120
(dp214
g4
F48.62637362637363
sg5
F49.42528735632184
ssI660
(dp215
g4
F68.68131868131869
sg5
F52.87356321839081
ssI380
(dp216
g4
F57.967032967032964
sg5
F47.12643678160919
sss(I6
I1
I16
I5
I2
I16
tp217
(dp218
I0
(dp219
g4
F15.384615384615385
sg5
F16.091954022988507
ssI640
(dp220
g4
F76.37362637362638
sg5
F60.91954022988506
ssI260
(dp221
g4
F52.472527472527474
sg5
F47.12643678160919
ssI520
(dp222
g4
F76.37362637362638
sg5
F55.172413793103445
ssI940
(dp223
g4
F86.26373626373626
sg5
F65.51724137931035
ssI140
(dp224
g4
F48.9010989010989
sg5
F42.52873563218391
ssI400
(dp225
g4
F59.61538461538461
sg5
F52.87356321839081
ssI920
(dp226
g4
F86.26373626373626
sg5
F65.51724137931035
ssI20
(dp227
g4
F15.384615384615385
sg5
F16.091954022988507
ssI280
(dp228
g4
F52.472527472527474
sg5
F47.12643678160919
ssI900
(dp229
g4
F86.26373626373626
sg5
F65.51724137931035
ssI540
(dp230
g4
F76.37362637362638
sg5
F55.172413793103445
ssI160
(dp231
g4
F48.9010989010989
sg5
F42.52873563218391
ssI880
(dp232
g4
F80.49450549450549
sg5
F59.770114942528735
ssI420
(dp233
g4
F59.61538461538461
sg5
F52.87356321839081
ssI40
(dp234
g4
F15.384615384615385
sg5
F16.091954022988507
ssI860
(dp235
g4
F80.49450549450549
sg5
F59.770114942528735
ssI300
(dp236
g4
F62.637362637362635
sg5
F51.724137931034484
ssI560
(dp237
g4
F76.37362637362638
sg5
F55.172413793103445
ssI840
(dp238
g4
F80.49450549450549
sg5
F59.770114942528735
ssI180
(dp239
g4
F48.9010989010989
sg5
F42.52873563218391
ssI960
(dp240
g4
F86.26373626373626
sg5
F65.51724137931035
ssI440
(dp241
g4
F59.61538461538461
sg5
F52.87356321839081
ssI820
(dp242
g4
F80.49450549450549
sg5
F59.770114942528735
ssI60
(dp243
g4
F15.384615384615385
sg5
F16.091954022988507
ssI320
(dp244
g4
F62.637362637362635
sg5
F51.724137931034484
ssI800
(dp245
g4
F80.49450549450549
sg5
F59.770114942528735
ssI580
(dp246
g4
F76.37362637362638
sg5
F55.172413793103445
ssI200
(dp247
g4
F52.472527472527474
sg5
F47.12643678160919
ssI780
(dp248
g4
F77.74725274725274
sg5
F55.172413793103445
ssI460
(dp249
g4
F59.61538461538461
sg5
F52.87356321839081
ssI80
(dp250
g4
F15.384615384615385
sg5
F16.091954022988507
ssI760
(dp251
g4
F77.74725274725274
sg5
F55.172413793103445
ssI340
(dp252
g4
F62.637362637362635
sg5
F51.724137931034484
ssI1000
(dp253
g4
F86.81318681318682
sg5
F62.06896551724138
ssI600
(dp254
g4
F76.37362637362638
sg5
F60.91954022988506
ssI740
(dp255
g4
F77.74725274725274
sg5
F55.172413793103445
ssI220
(dp256
g4
F52.472527472527474
sg5
F47.12643678160919
ssI480
(dp257
g4
F59.61538461538461
sg5
F52.87356321839081
ssI720
(dp258
g4
F77.74725274725274
sg5
F55.172413793103445
ssI100
(dp259
g4
F48.9010989010989
sg5
F42.52873563218391
ssI360
(dp260
g4
F62.637362637362635
sg5
F51.724137931034484
ssI700
(dp261
g4
F77.74725274725274
sg5
F55.172413793103445
ssI620
(dp262
g4
F76.37362637362638
sg5
F60.91954022988506
ssI980
(dp263
g4
F86.26373626373626
sg5
F65.51724137931035
ssI240
(dp264
g4
F52.472527472527474
sg5
F47.12643678160919
ssI680
(dp265
g4
F76.37362637362638
sg5
F60.91954022988506
ssI500
(dp266
g4
F76.37362637362638
sg5
F55.172413793103445
ssI120
(dp267
g4
F48.9010989010989
sg5
F42.52873563218391
ssI660
(dp268
g4
F76.37362637362638
sg5
F60.91954022988506
ssI380
(dp269
g4
F62.637362637362635
sg5
F51.724137931034484
sss(I6
I3
I16
I5
I2
I16
tp270
(dp271
I0
(dp272
g4
F15.384615384615385
sg5
F16.091954022988507
ssI640
(dp273
g4
F71.15384615384616
sg5
F56.32183908045977
ssI260
(dp274
g4
F49.72527472527472
sg5
F44.827586206896555
ssI520
(dp275
g4
F72.8021978021978
sg5
F57.47126436781609
ssI940
(dp276
g4
F78.57142857142857
sg5
F60.91954022988506
ssI140
(dp277
g4
F52.472527472527474
sg5
F37.93103448275862
ssI400
(dp278
g4
F60.16483516483517
sg5
F47.12643678160919
ssI920
(dp279
g4
F78.57142857142857
sg5
F60.91954022988506
ssI20
(dp280
g4
F15.384615384615385
sg5
F16.091954022988507
ssI280
(dp281
g4
F49.72527472527472
sg5
F44.827586206896555
ssI900
(dp282
g4
F78.57142857142857
sg5
F60.91954022988506
ssI540
(dp283
g4
F72.8021978021978
sg5
F57.47126436781609
ssI160
(dp284
g4
F52.472527472527474
sg5
F37.93103448275862
ssI880
(dp285
g4
F73.07692307692308
sg5
F59.770114942528735
ssI420
(dp286
g4
F60.16483516483517
sg5
F47.12643678160919
ssI40
(dp287
g4
F15.384615384615385
sg5
F16.091954022988507
ssI860
(dp288
g4
F73.07692307692308
sg5
F59.770114942528735
ssI300
(dp289
g4
F63.18681318681319
sg5
F50.57471264367816
ssI560
(dp290
g4
F72.8021978021978
sg5
F57.47126436781609
ssI840
(dp291
g4
F73.07692307692308
sg5
F59.770114942528735
ssI180
(dp292
g4
F52.472527472527474
sg5
F37.93103448275862
ssI960
(dp293
g4
F78.57142857142857
sg5
F60.91954022988506
ssI440
(dp294
g4
F60.16483516483517
sg5
F47.12643678160919
ssI820
(dp295
g4
F73.07692307692308
sg5
F59.770114942528735
ssI60
(dp296
g4
F15.384615384615385
sg5
F16.091954022988507
ssI320
(dp297
g4
F63.18681318681319
sg5
F50.57471264367816
ssI800
(dp298
g4
F73.07692307692308
sg5
F59.770114942528735
ssI580
(dp299
g4
F72.8021978021978
sg5
F57.47126436781609
ssI200
(dp300
g4
F49.72527472527472
sg5
F44.827586206896555
ssI780
(dp301
g4
F68.13186813186813
sg5
F54.02298850574713
ssI460
(dp302
g4
F60.16483516483517
sg5
F47.12643678160919
ssI80
(dp303
g4
F15.384615384615385
sg5
F16.091954022988507
ssI760
(dp304
g4
F68.13186813186813
sg5
F54.02298850574713
ssI340
(dp305
g4
F63.18681318681319
sg5
F50.57471264367816
ssI1000
(dp306
g4
F79.67032967032966
sg5
F64.36781609195403
ssI600
(dp307
g4
F71.15384615384616
sg5
F56.32183908045977
ssI740
(dp308
g4
F68.13186813186813
sg5
F54.02298850574713
ssI220
(dp309
g4
F49.72527472527472
sg5
F44.827586206896555
ssI480
(dp310
g4
F60.16483516483517
sg5
F47.12643678160919
ssI720
(dp311
g4
F68.13186813186813
sg5
F54.02298850574713
ssI100
(dp312
g4
F52.472527472527474
sg5
F37.93103448275862
ssI360
(dp313
g4
F63.18681318681319
sg5
F50.57471264367816
ssI700
(dp314
g4
F68.13186813186813
sg5
F54.02298850574713
ssI620
(dp315
g4
F71.15384615384616
sg5
F56.32183908045977
ssI980
(dp316
g4
F78.57142857142857
sg5
F60.91954022988506
ssI240
(dp317
g4
F49.72527472527472
sg5
F44.827586206896555
ssI680
(dp318
g4
F71.15384615384616
sg5
F56.32183908045977
ssI500
(dp319
g4
F72.8021978021978
sg5
F57.47126436781609
ssI120
(dp320
g4
F52.472527472527474
sg5
F37.93103448275862
ssI660
(dp321
g4
F71.15384615384616
sg5
F56.32183908045977
ssI380
(dp322
g4
F63.18681318681319
sg5
F50.57471264367816
sss(I6
I2
I16
I5
I2
I16
tp323
(dp324
I0
(dp325
g4
F15.384615384615385
sg5
F16.091954022988507
ssI640
(dp326
g4
F75.54945054945055
sg5
F62.06896551724138
ssI260
(dp327
g4
F55.494505494505496
sg5
F49.42528735632184
ssI520
(dp328
g4
F71.42857142857143
sg5
F59.770114942528735
ssI940
(dp329
g4
F83.79120879120879
sg5
F64.36781609195403
ssI140
(dp330
g4
F50.824175824175825
sg5
F47.12643678160919
ssI400
(dp331
g4
F66.75824175824175
sg5
F55.172413793103445
ssI920
(dp332
g4
F83.79120879120879
sg5
F64.36781609195403
ssI20
(dp333
g4
F15.384615384615385
sg5
F16.091954022988507
ssI280
(dp334
g4
F55.494505494505496
sg5
F49.42528735632184
ssI900
(dp335
g4
F83.79120879120879
sg5
F64.36781609195403
ssI540
(dp336
g4
F71.42857142857143
sg5
F59.770114942528735
ssI160
(dp337
g4
F50.824175824175825
sg5
F47.12643678160919
ssI880
(dp338
g4
F78.2967032967033
sg5
F64.36781609195403
ssI420
(dp339
g4
F66.75824175824175
sg5
F55.172413793103445
ssI40
(dp340
g4
F15.384615384615385
sg5
F16.091954022988507
ssI860
(dp341
g4
F78.2967032967033
sg5
F64.36781609195403
ssI300
(dp342
g4
F67.85714285714286
sg5
F52.87356321839081
ssI560
(dp343
g4
F71.42857142857143
sg5
F59.770114942528735
ssI840
(dp344
g4
F78.2967032967033
sg5
F64.36781609195403
ssI180
(dp345
g4
F50.824175824175825
sg5
F47.12643678160919
ssI960
(dp346
g4
F83.79120879120879
sg5
F64.36781609195403
ssI440
(dp347
g4
F66.75824175824175
sg5
F55.172413793103445
ssI820
(dp348
g4
F78.2967032967033
sg5
F64.36781609195403
ssI60
(dp349
g4
F15.384615384615385
sg5
F16.091954022988507
ssI320
(dp350
g4
F67.85714285714286
sg5
F52.87356321839081
ssI800
(dp351
g4
F78.2967032967033
sg5
F64.36781609195403
ssI580
(dp352
g4
F71.42857142857143
sg5
F59.770114942528735
ssI200
(dp353
g4
F55.494505494505496
sg5
F49.42528735632184
ssI780
(dp354
g4
F71.97802197802197
sg5
F55.172413793103445
ssI460
(dp355
g4
F66.75824175824175
sg5
F55.172413793103445
ssI80
(dp356
g4
F15.384615384615385
sg5
F16.091954022988507
ssI760
(dp357
g4
F71.97802197802197
sg5
F55.172413793103445
ssI340
(dp358
g4
F67.85714285714286
sg5
F52.87356321839081
ssI1000
(dp359
g4
F78.84615384615384
sg5
F63.2183908045977
ssI600
(dp360
g4
F75.54945054945055
sg5
F62.06896551724138
ssI740
(dp361
g4
F71.97802197802197
sg5
F55.172413793103445
ssI220
(dp362
g4
F55.494505494505496
sg5
F49.42528735632184
ssI480
(dp363
g4
F66.75824175824175
sg5
F55.172413793103445
ssI720
(dp364
g4
F71.97802197802197
sg5
F55.172413793103445
ssI100
(dp365
g4
F50.824175824175825
sg5
F47.12643678160919
ssI360
(dp366
g4
F67.85714285714286
sg5
F52.87356321839081
ssI700
(dp367
g4
F71.97802197802197
sg5
F55.172413793103445
ssI620
(dp368
g4
F75.54945054945055
sg5
F62.06896551724138
ssI980
(dp369
g4
F83.79120879120879
sg5
F64.36781609195403
ssI240
(dp370
g4
F55.494505494505496
sg5
F49.42528735632184
ssI680
(dp371
g4
F75.54945054945055
sg5
F62.06896551724138
ssI500
(dp372
g4
F71.42857142857143
sg5
F59.770114942528735
ssI120
(dp373
g4
F50.824175824175825
sg5
F47.12643678160919
ssI660
(dp374
g4
F75.54945054945055
sg5
F62.06896551724138
ssI380
(dp375
g4
F67.85714285714286
sg5
F52.87356321839081
sss(I4
I3
I16
I5
I2
I16
tp376
(dp377
I0
(dp378
g4
F14.010989010989011
sg5
F13.793103448275861
ssI640
(dp379
g4
F68.13186813186813
sg5
F58.62068965517241
ssI260
(dp380
g4
F48.9010989010989
sg5
F42.52873563218391
ssI520
(dp381
g4
F70.32967032967034
sg5
F59.770114942528735
ssI940
(dp382
g4
F80.76923076923077
sg5
F63.2183908045977
ssI140
(dp383
g4
F47.252747252747255
sg5
F43.67816091954023
ssI400
(dp384
g4
F60.16483516483517
sg5
F47.12643678160919
ssI920
(dp385
g4
F80.76923076923077
sg5
F63.2183908045977
ssI20
(dp386
g4
F14.010989010989011
sg5
F13.793103448275861
ssI280
(dp387
g4
F48.9010989010989
sg5
F42.52873563218391
ssI900
(dp388
g4
F80.76923076923077
sg5
F63.2183908045977
ssI540
(dp389
g4
F70.32967032967034
sg5
F59.770114942528735
ssI160
(dp390
g4
F47.252747252747255
sg5
F43.67816091954023
ssI880
(dp391
g4
F74.17582417582418
sg5
F65.51724137931035
ssI420
(dp392
g4
F60.16483516483517
sg5
F47.12643678160919
ssI40
(dp393
g4
F14.010989010989011
sg5
F13.793103448275861
ssI860
(dp394
g4
F74.17582417582418
sg5
F65.51724137931035
ssI300
(dp395
g4
F60.16483516483517
sg5
F45.97701149425287
ssI560
(dp396
g4
F70.32967032967034
sg5
F59.770114942528735
ssI840
(dp397
g4
F74.17582417582418
sg5
F65.51724137931035
ssI180
(dp398
g4
F47.252747252747255
sg5
F43.67816091954023
ssI960
(dp399
g4
F80.76923076923077
sg5
F63.2183908045977
ssI440
(dp400
g4
F60.16483516483517
sg5
F47.12643678160919
ssI820
(dp401
g4
F74.17582417582418
sg5
F65.51724137931035
ssI60
(dp402
g4
F14.010989010989011
sg5
F13.793103448275861
ssI320
(dp403
g4
F60.16483516483517
sg5
F45.97701149425287
ssI800
(dp404
g4
F74.17582417582418
sg5
F65.51724137931035
ssI580
(dp405
g4
F70.32967032967034
sg5
F59.770114942528735
ssI200
(dp406
g4
F48.9010989010989
sg5
F42.52873563218391
ssI780
(dp407
g4
F68.95604395604396
sg5
F56.32183908045977
ssI460
(dp408
g4
F60.16483516483517
sg5
F47.12643678160919
ssI80
(dp409
g4
F14.010989010989011
sg5
F13.793103448275861
ssI760
(dp410
g4
F68.95604395604396
sg5
F56.32183908045977
ssI340
(dp411
g4
F60.16483516483517
sg5
F45.97701149425287
ssI1000
(dp412
g4
F73.62637362637362
sg5
F57.47126436781609
ssI600
(dp413
g4
F68.13186813186813
sg5
F58.62068965517241
ssI740
(dp414
g4
F68.95604395604396
sg5
F56.32183908045977
ssI220
(dp415
g4
F48.9010989010989
sg5
F42.52873563218391
ssI480
(dp416
g4
F60.16483516483517
sg5
F47.12643678160919
ssI720
(dp417
g4
F68.95604395604396
sg5
F56.32183908045977
ssI100
(dp418
g4
F47.252747252747255
sg5
F43.67816091954023
ssI360
(dp419
g4
F60.16483516483517
sg5
F45.97701149425287
ssI700
(dp420
g4
F68.95604395604396
sg5
F56.32183908045977
ssI620
(dp421
g4
F68.13186813186813
sg5
F58.62068965517241
ssI980
(dp422
g4
F80.76923076923077
sg5
F63.2183908045977
ssI240
(dp423
g4
F48.9010989010989
sg5
F42.52873563218391
ssI680
(dp424
g4
F68.13186813186813
sg5
F58.62068965517241
ssI500
(dp425
g4
F70.32967032967034
sg5
F59.770114942528735
ssI120
(dp426
g4
F47.252747252747255
sg5
F43.67816091954023
ssI660
(dp427
g4
F68.13186813186813
sg5
F58.62068965517241
ssI380
(dp428
g4
F60.16483516483517
sg5
F45.97701149425287
sss(I4
I1
I16
I5
I2
I16
tp429
(dp430
I0
(dp431
g4
F13.186813186813186
sg5
F14.942528735632184
ssI640
(dp432
g4
F71.42857142857143
sg5
F56.32183908045977
ssI260
(dp433
g4
F47.8021978021978
sg5
F35.632183908045974
ssI520
(dp434
g4
F63.46153846153846
sg5
F49.42528735632184
ssI940
(dp435
g4
F79.94505494505495
sg5
F57.47126436781609
ssI140
(dp436
g4
F46.42857142857143
sg5
F44.827586206896555
ssI400
(dp437
g4
F60.16483516483517
sg5
F45.97701149425287
ssI920
(dp438
g4
F79.94505494505495
sg5
F57.47126436781609
ssI20
(dp439
g4
F13.186813186813186
sg5
F14.942528735632184
ssI280
(dp440
g4
F47.8021978021978
sg5
F35.632183908045974
ssI900
(dp441
g4
F79.94505494505495
sg5
F57.47126436781609
ssI540
(dp442
g4
F63.46153846153846
sg5
F49.42528735632184
ssI160
(dp443
g4
F46.42857142857143
sg5
F44.827586206896555
ssI880
(dp444
g4
F75.54945054945055
sg5
F63.2183908045977
ssI420
(dp445
g4
F60.16483516483517
sg5
F45.97701149425287
ssI40
(dp446
g4
F13.186813186813186
sg5
F14.942528735632184
ssI860
(dp447
g4
F75.54945054945055
sg5
F63.2183908045977
ssI300
(dp448
g4
F50.0
sg5
F43.67816091954023
ssI560
(dp449
g4
F63.46153846153846
sg5
F49.42528735632184
ssI840
(dp450
g4
F75.54945054945055
sg5
F63.2183908045977
ssI180
(dp451
g4
F46.42857142857143
sg5
F44.827586206896555
ssI960
(dp452
g4
F79.94505494505495
sg5
F57.47126436781609
ssI440
(dp453
g4
F60.16483516483517
sg5
F45.97701149425287
ssI820
(dp454
g4
F75.54945054945055
sg5
F63.2183908045977
ssI60
(dp455
g4
F13.186813186813186
sg5
F14.942528735632184
ssI320
(dp456
g4
F50.0
sg5
F43.67816091954023
ssI800
(dp457
g4
F75.54945054945055
sg5
F63.2183908045977
ssI580
(dp458
g4
F63.46153846153846
sg5
F49.42528735632184
ssI200
(dp459
g4
F47.8021978021978
sg5
F35.632183908045974
ssI780
(dp460
g4
F72.8021978021978
sg5
F55.172413793103445
ssI460
(dp461
g4
F60.16483516483517
sg5
F45.97701149425287
ssI80
(dp462
g4
F13.186813186813186
sg5
F14.942528735632184
ssI760
(dp463
g4
F72.8021978021978
sg5
F55.172413793103445
ssI340
(dp464
g4
F50.0
sg5
F43.67816091954023
ssI1000
(dp465
g4
F81.5934065934066
sg5
F62.06896551724138
ssI600
(dp466
g4
F71.42857142857143
sg5
F56.32183908045977
ssI740
(dp467
g4
F72.8021978021978
sg5
F55.172413793103445
ssI220
(dp468
g4
F47.8021978021978
sg5
F35.632183908045974
ssI480
(dp469
g4
F60.16483516483517
sg5
F45.97701149425287
ssI720
(dp470
g4
F72.8021978021978
sg5
F55.172413793103445
ssI100
(dp471
g4
F46.42857142857143
sg5
F44.827586206896555
ssI360
(dp472
g4
F50.0
sg5
F43.67816091954023
ssI700
(dp473
g4
F72.8021978021978
sg5
F55.172413793103445
ssI620
(dp474
g4
F71.42857142857143
sg5
F56.32183908045977
ssI980
(dp475
g4
F79.94505494505495
sg5
F57.47126436781609
ssI240
(dp476
g4
F47.8021978021978
sg5
F35.632183908045974
ssI680
(dp477
g4
F71.42857142857143
sg5
F56.32183908045977
ssI500
(dp478
g4
F63.46153846153846
sg5
F49.42528735632184
ssI120
(dp479
g4
F46.42857142857143
sg5
F44.827586206896555
ssI660
(dp480
g4
F71.42857142857143
sg5
F56.32183908045977
ssI380
(dp481
g4
F50.0
sg5
F43.67816091954023
sss(I5
I3
I16
I5
I2
I16
tp482
(dp483
I0
(dp484
g4
F15.384615384615385
sg5
F16.091954022988507
ssI640
(dp485
g4
F69.50549450549451
sg5
F52.87356321839081
ssI260
(dp486
g4
F50.54945054945055
sg5
F44.827586206896555
ssI520
(dp487
g4
F69.23076923076923
sg5
F55.172413793103445
ssI940
(dp488
g4
F77.74725274725274
sg5
F59.770114942528735
ssI140
(dp489
g4
F47.8021978021978
sg5
F48.275862068965516
ssI400
(dp490
g4
F61.53846153846154
sg5
F55.172413793103445
ssI920
(dp491
g4
F77.74725274725274
sg5
F59.770114942528735
ssI20
(dp492
g4
F15.384615384615385
sg5
F16.091954022988507
ssI280
(dp493
g4
F50.54945054945055
sg5
F44.827586206896555
ssI900
(dp494
g4
F77.74725274725274
sg5
F59.770114942528735
ssI540
(dp495
g4
F69.23076923076923
sg5
F55.172413793103445
ssI160
(dp496
g4
F47.8021978021978
sg5
F48.275862068965516
ssI880
(dp497
g4
F77.1978021978022
sg5
F64.36781609195403
ssI420
(dp498
g4
F61.53846153846154
sg5
F55.172413793103445
ssI40
(dp499
g4
F15.384615384615385
sg5
F16.091954022988507
ssI860
(dp500
g4
F77.1978021978022
sg5
F64.36781609195403
ssI300
(dp501
g4
F63.18681318681319
sg5
F54.02298850574713
ssI560
(dp502
g4
F69.23076923076923
sg5
F55.172413793103445
ssI840
(dp503
g4
F77.1978021978022
sg5
F64.36781609195403
ssI180
(dp504
g4
F47.8021978021978
sg5
F48.275862068965516
ssI960
(dp505
g4
F77.74725274725274
sg5
F59.770114942528735
ssI440
(dp506
g4
F61.53846153846154
sg5
F55.172413793103445
ssI820
(dp507
g4
F77.1978021978022
sg5
F64.36781609195403
ssI60
(dp508
g4
F15.384615384615385
sg5
F16.091954022988507
ssI320
(dp509
g4
F63.18681318681319
sg5
F54.02298850574713
ssI800
(dp510
g4
F77.1978021978022
sg5
F64.36781609195403
ssI580
(dp511
g4
F69.23076923076923
sg5
F55.172413793103445
ssI200
(dp512
g4
F50.54945054945055
sg5
F44.827586206896555
ssI780
(dp513
g4
F74.17582417582418
sg5
F57.47126436781609
ssI460
(dp514
g4
F61.53846153846154
sg5
F55.172413793103445
ssI80
(dp515
g4
F15.384615384615385
sg5
F16.091954022988507
ssI760
(dp516
g4
F74.17582417582418
sg5
F57.47126436781609
ssI340
(dp517
g4
F63.18681318681319
sg5
F54.02298850574713
ssI1000
(dp518
g4
F76.37362637362638
sg5
F65.51724137931035
ssI600
(dp519
g4
F69.50549450549451
sg5
F52.87356321839081
ssI740
(dp520
g4
F74.17582417582418
sg5
F57.47126436781609
ssI220
(dp521
g4
F50.54945054945055
sg5
F44.827586206896555
ssI480
(dp522
g4
F61.53846153846154
sg5
F55.172413793103445
ssI720
(dp523
g4
F74.17582417582418
sg5
F57.47126436781609
ssI100
(dp524
g4
F47.8021978021978
sg5
F48.275862068965516
ssI360
(dp525
g4
F63.18681318681319
sg5
F54.02298850574713
ssI700
(dp526
g4
F74.17582417582418
sg5
F57.47126436781609
ssI620
(dp527
g4
F69.50549450549451
sg5
F52.87356321839081
ssI980
(dp528
g4
F77.74725274725274
sg5
F59.770114942528735
ssI240
(dp529
g4
F50.54945054945055
sg5
F44.827586206896555
ssI680
(dp530
g4
F69.50549450549451
sg5
F52.87356321839081
ssI500
(dp531
g4
F69.23076923076923
sg5
F55.172413793103445
ssI120
(dp532
g4
F47.8021978021978
sg5
F48.275862068965516
ssI660
(dp533
g4
F69.50549450549451
sg5
F52.87356321839081
ssI380
(dp534
g4
F63.18681318681319
sg5
F54.02298850574713
sss(I5
I1
I16
I5
I2
I16
tp535
(dp536
I0
(dp537
g4
F20.604395604395606
sg5
F19.54022988505747
ssI640
(dp538
g4
F70.87912087912088
sg5
F55.172413793103445
ssI260
(dp539
g4
F50.54945054945055
sg5
F42.52873563218391
ssI520
(dp540
g4
F64.56043956043956
sg5
F50.57471264367816
ssI940
(dp541
g4
F77.47252747252747
sg5
F56.32183908045977
ssI140
(dp542
g4
F49.45054945054945
sg5
F47.12643678160919
ssI400
(dp543
g4
F57.69230769230769
sg5
F43.67816091954023
ssI920
(dp544
g4
F77.47252747252747
sg5
F56.32183908045977
ssI20
(dp545
g4
F20.604395604395606
sg5
F19.54022988505747
ssI280
(dp546
g4
F50.54945054945055
sg5
F42.52873563218391
ssI900
(dp547
g4
F77.47252747252747
sg5
F56.32183908045977
ssI540
(dp548
g4
F64.56043956043956
sg5
F50.57471264367816
ssI160
(dp549
g4
F49.45054945054945
sg5
F47.12643678160919
ssI880
(dp550
g4
F71.15384615384616
sg5
F56.32183908045977
ssI420
(dp551
g4
F57.69230769230769
sg5
F43.67816091954023
ssI40
(dp552
g4
F20.604395604395606
sg5
F19.54022988505747
ssI860
(dp553
g4
F71.15384615384616
sg5
F56.32183908045977
ssI300
(dp554
g4
F60.714285714285715
sg5
F49.42528735632184
ssI560
(dp555
g4
F64.56043956043956
sg5
F50.57471264367816
ssI840
(dp556
g4
F71.15384615384616
sg5
F56.32183908045977
ssI180
(dp557
g4
F49.45054945054945
sg5
F47.12643678160919
ssI960
(dp558
g4
F77.47252747252747
sg5
F56.32183908045977
ssI440
(dp559
g4
F57.69230769230769
sg5
F43.67816091954023
ssI820
(dp560
g4
F71.15384615384616
sg5
F56.32183908045977
ssI60
(dp561
g4
F20.604395604395606
sg5
F19.54022988505747
ssI320
(dp562
g4
F60.714285714285715
sg5
F49.42528735632184
ssI800
(dp563
g4
F71.15384615384616
sg5
F56.32183908045977
ssI580
(dp564
g4
F64.56043956043956
sg5
F50.57471264367816
ssI200
(dp565
g4
F50.54945054945055
sg5
F42.52873563218391
ssI780
(dp566
g4
F66.48351648351648
sg5
F52.87356321839081
ssI460
(dp567
g4
F57.69230769230769
sg5
F43.67816091954023
ssI80
(dp568
g4
F20.604395604395606
sg5
F19.54022988505747
ssI760
(dp569
g4
F66.48351648351648
sg5
F52.87356321839081
ssI340
(dp570
g4
F60.714285714285715
sg5
F49.42528735632184
ssI1000
(dp571
g4
F79.12087912087912
sg5
F63.2183908045977
ssI600
(dp572
g4
F70.87912087912088
sg5
F55.172413793103445
ssI740
(dp573
g4
F66.48351648351648
sg5
F52.87356321839081
ssI220
(dp574
g4
F50.54945054945055
sg5
F42.52873563218391
ssI480
(dp575
g4
F57.69230769230769
sg5
F43.67816091954023
ssI720
(dp576
g4
F66.48351648351648
sg5
F52.87356321839081
ssI100
(dp577
g4
F49.45054945054945
sg5
F47.12643678160919
ssI360
(dp578
g4
F60.714285714285715
sg5
F49.42528735632184
ssI700
(dp579
g4
F66.48351648351648
sg5
F52.87356321839081
ssI620
(dp580
g4
F70.87912087912088
sg5
F55.172413793103445
ssI980
(dp581
g4
F77.47252747252747
sg5
F56.32183908045977
ssI240
(dp582
g4
F50.54945054945055
sg5
F42.52873563218391
ssI680
(dp583
g4
F70.87912087912088
sg5
F55.172413793103445
ssI500
(dp584
g4
F64.56043956043956
sg5
F50.57471264367816
ssI120
(dp585
g4
F49.45054945054945
sg5
F47.12643678160919
ssI660
(dp586
g4
F70.87912087912088
sg5
F55.172413793103445
ssI380
(dp587
g4
F60.714285714285715
sg5
F49.42528735632184
sss(I3
I3
I16
I5
I2
I16
tp588
(dp589
I0
(dp590
g4
F8.516483516483516
sg5
F11.494252873563218
ssI640
(dp591
g4
F61.81318681318681
sg5
F52.87356321839081
ssI260
(dp592
g4
F47.527472527472526
sg5
F42.52873563218391
ssI520
(dp593
g4
F62.91208791208791
sg5
F47.12643678160919
ssI940
(dp594
g4
F77.1978021978022
sg5
F65.51724137931035
ssI140
(dp595
g4
F44.23076923076923
sg5
F44.827586206896555
ssI400
(dp596
g4
F54.67032967032967
sg5
F45.97701149425287
ssI920
(dp597
g4
F77.1978021978022
sg5
F65.51724137931035
ssI20
(dp598
g4
F8.516483516483516
sg5
F11.494252873563218
ssI280
(dp599
g4
F47.527472527472526
sg5
F42.52873563218391
ssI900
(dp600
g4
F77.1978021978022
sg5
F65.51724137931035
ssI540
(dp601
g4
F62.91208791208791
sg5
F47.12643678160919
ssI160
(dp602
g4
F44.23076923076923
sg5
F44.827586206896555
ssI880
(dp603
g4
F71.7032967032967
sg5
F54.02298850574713
ssI420
(dp604
g4
F54.67032967032967
sg5
F45.97701149425287
ssI40
(dp605
g4
F8.516483516483516
sg5
F11.494252873563218
ssI860
(dp606
g4
F71.7032967032967
sg5
F54.02298850574713
ssI300
(dp607
g4
F54.94505494505494
sg5
F49.42528735632184
ssI560
(dp608
g4
F62.91208791208791
sg5
F47.12643678160919
ssI840
(dp609
g4
F71.7032967032967
sg5
F54.02298850574713
ssI180
(dp610
g4
F44.23076923076923
sg5
F44.827586206896555
ssI960
(dp611
g4
F77.1978021978022
sg5
F65.51724137931035
ssI440
(dp612
g4
F54.67032967032967
sg5
F45.97701149425287
ssI820
(dp613
g4
F71.7032967032967
sg5
F54.02298850574713
ssI60
(dp614
g4
F8.516483516483516
sg5
F11.494252873563218
ssI320
(dp615
g4
F54.94505494505494
sg5
F49.42528735632184
ssI800
(dp616
g4
F71.7032967032967
sg5
F54.02298850574713
ssI580
(dp617
g4
F62.91208791208791
sg5
F47.12643678160919
ssI200
(dp618
g4
F47.527472527472526
sg5
F42.52873563218391
ssI780
(dp619
g4
F65.65934065934066
sg5
F54.02298850574713
ssI460
(dp620
g4
F54.67032967032967
sg5
F45.97701149425287
ssI80
(dp621
g4
F8.516483516483516
sg5
F11.494252873563218
ssI760
(dp622
g4
F65.65934065934066
sg5
F54.02298850574713
ssI340
(dp623
g4
F54.94505494505494
sg5
F49.42528735632184
ssI1000
(dp624
g4
F70.05494505494505
sg5
F57.47126436781609
ssI600
(dp625
g4
F61.81318681318681
sg5
F52.87356321839081
ssI740
(dp626
g4
F65.65934065934066
sg5
F54.02298850574713
ssI220
(dp627
g4
F47.527472527472526
sg5
F42.52873563218391
ssI480
(dp628
g4
F54.67032967032967
sg5
F45.97701149425287
ssI720
(dp629
g4
F65.65934065934066
sg5
F54.02298850574713
ssI100
(dp630
g4
F44.23076923076923
sg5
F44.827586206896555
ssI360
(dp631
g4
F54.94505494505494
sg5
F49.42528735632184
ssI700
(dp632
g4
F65.65934065934066
sg5
F54.02298850574713
ssI620
(dp633
g4
F61.81318681318681
sg5
F52.87356321839081
ssI980
(dp634
g4
F77.1978021978022
sg5
F65.51724137931035
ssI240
(dp635
g4
F47.527472527472526
sg5
F42.52873563218391
ssI680
(dp636
g4
F61.81318681318681
sg5
F52.87356321839081
ssI500
(dp637
g4
F62.91208791208791
sg5
F47.12643678160919
ssI120
(dp638
g4
F44.23076923076923
sg5
F44.827586206896555
ssI660
(dp639
g4
F61.81318681318681
sg5
F52.87356321839081
ssI380
(dp640
g4
F54.94505494505494
sg5
F49.42528735632184
sss.