(dp0
(I4
I3
I2
I2
tp1
(dp2
S'train_acc'
p3
F60.43956043956044
sS'val_acc'
p4
F43.67816091954023
ss(I2
I3
I2
I2
tp5
(dp6
g3
F65.10989010989012
sg4
F49.42528735632184
ss(I7
I4
I2
I2
tp7
(dp8
g3
F65.93406593406593
sg4
F54.02298850574713
ss(I7
I6
I2
I2
tp9
(dp10
g3
F59.61538461538461
sg4
F51.724137931034484
ss(I6
I6
I2
I2
tp11
(dp12
g3
F56.59340659340659
sg4
F49.42528735632184
ss(I4
I4
I2
I2
tp13
(dp14
g3
F62.362637362637365
sg4
F50.57471264367816
ss(I4
I7
I2
I2
tp15
(dp16
g3
F52.472527472527474
sg4
F50.57471264367816
ss(I2
I7
I2
I2
tp17
(dp18
g3
F49.72527472527472
sg4
F44.827586206896555
ss(I7
I1
I2
I2
tp19
(dp20
g3
F87.36263736263736
sg4
F66.66666666666667
ss(I7
I2
I2
I2
tp21
(dp22
g3
F75.0
sg4
F68.96551724137932
ss(I3
I4
I2
I2
tp23
(dp24
g3
F57.417582417582416
sg4
F50.57471264367816
ss(I5
I2
I2
I2
tp25
(dp26
g3
F76.0989010989011
sg4
F68.96551724137932
ss(I4
I2
I2
I2
tp27
(dp28
g3
F72.8021978021978
sg4
F64.36781609195403
ss(I2
I2
I2
I2
tp29
(dp30
g3
F70.87912087912088
sg4
F60.91954022988506
ss(I2
I1
I2
I2
tp31
(dp32
g3
F85.71428571428571
sg4
F63.2183908045977
ss(I7
I5
I2
I2
tp33
(dp34
g3
F57.142857142857146
sg4
F50.57471264367816
ss(I5
I4
I2
I2
tp35
(dp36
g3
F59.34065934065934
sg4
F48.275862068965516
ss(I5
I6
I2
I2
tp37
(dp38
g3
F57.967032967032964
sg4
F50.57471264367816
ss(I6
I7
I2
I2
tp39
(dp40
g3
F58.24175824175824
sg4
F49.42528735632184
ss(I4
I6
I2
I2
tp41
(dp42
g3
F62.91208791208791
sg4
F58.62068965517241
ss(I2
I6
I2
I2
tp43
(dp44
g3
F54.67032967032967
sg4
F45.97701149425287
ss(I2
I5
I2
I2
tp45
(dp46
g3
F56.043956043956044
sg4
F43.67816091954023
ss(I7
I3
I2
I2
tp47
(dp48
g3
F57.69230769230769
sg4
F47.12643678160919
ss(I3
I5
I2
I2
tp49
(dp50
g3
F60.16483516483517
sg4
F44.827586206896555
ss(I3
I6
I2
I2
tp51
(dp52
g3
F59.89010989010989
sg4
F47.12643678160919
ss(I6
I3
I2
I2
tp53
(dp54
g3
F64.83516483516483
sg4
F49.42528735632184
ss(I7
I7
I2
I2
tp55
(dp56
g3
F58.51648351648352
sg4
F50.57471264367816
ss(I3
I1
I2
I2
tp57
(dp58
g3
F86.81318681318682
sg4
F68.96551724137932
ss(I3
I2
I2
I2
tp59
(dp60
g3
F74.72527472527473
sg4
F60.91954022988506
ss(I5
I5
I2
I2
tp61
(dp62
g3
F59.065934065934066
sg4
F43.67816091954023
ss(I6
I5
I2
I2
tp63
(dp64
g3
F59.89010989010989
sg4
F49.42528735632184
ss(I4
I1
I2
I2
tp65
(dp66
g3
F86.26373626373626
sg4
F66.66666666666667
ss(I5
I1
I2
I2
tp67
(dp68
g3
F87.63736263736264
sg4
F68.96551724137932
ss(I2
I4
I2
I2
tp69
(dp70
g3
F61.81318681318681
sg4
F52.87356321839081
ss(I3
I7
I2
I2
tp71
(dp72
g3
F51.64835164835165
sg4
F41.37931034482759
ss(I6
I2
I2
I2
tp73
(dp74
g3
F71.97802197802197
sg4
F64.36781609195403
ss(I6
I1
I2
I2
tp75
(dp76
g3
F81.5934065934066
sg4
F70.11494252873563
ss(I4
I5
I2
I2
tp77
(dp78
g3
F58.51648351648352
sg4
F45.97701149425287
ss(I5
I7
I2
I2
tp79
(dp80
g3
F51.0989010989011
sg4
F43.67816091954023
ss(I3
I3
I2
I2
tp81
(dp82
g3
F65.38461538461539
sg4
F49.42528735632184
ss(I5
I3
I2
I2
tp83
(dp84
g3
F62.91208791208791
sg4
F50.57471264367816
ss(I6
I4
I2
I2
tp85
(dp86
g3
F67.58241758241758
sg4
F58.62068965517241
ss.