(dp0
(I5
I6
I4
I2
tp1
(dp2
S'train_acc'
p3
F54.395604395604394
sS'val_acc'
p4
F43.67816091954023
ss(I4
I1
I2
I3
tp5
(dp6
S'train_acc'
p7
F89.56043956043956
sS'val_acc'
p8
F68.96551724137932
ss(I3
I1
I6
I6
tp9
(dp10
S'train_acc'
p11
F83.24175824175825
sS'val_acc'
p12
F62.06896551724138
ss(I4
I1
I2
I5
tp13
(dp14
g7
F95.05494505494505
sg8
F66.66666666666667
ss(I6
I2
I3
I3
tp15
(dp16
S'train_acc'
p17
F77.1978021978022
sS'val_acc'
p18
F65.51724137931035
ss(I4
I1
I6
I6
tp19
(dp20
g7
F87.91208791208791
sg8
F71.26436781609195
ss(I4
I4
I2
I2
tp21
(dp22
S'train_acc'
p23
F64.01098901098901
sS'val_acc'
p24
F49.42528735632184
ss(I3
I4
I4
I2
tp25
(dp26
g3
F57.69230769230769
sg4
F45.97701149425287
ss(I4
I1
I6
I3
tp27
(dp28
g7
F83.79120879120879
sg8
F66.66666666666667
ss(I5
I2
I2
I2
tp29
(dp30
g23
F78.84615384615384
sg24
F71.26436781609195
ss(I3
I6
I3
I3
tp31
(dp32
g17
F52.472527472527474
sg18
F48.275862068965516
ss(I3
I3
I3
I3
tp33
(dp34
g17
F63.73626373626374
sg18
F45.97701149425287
ss(I2
I2
I3
I2
tp35
(dp36
S'train_acc'
p37
F78.84615384615384
sS'val_acc'
p38
F65.51724137931035
ss(I2
I1
I2
I1
tp39
(dp40
S'train_acc'
p41
F94.23076923076923
sS'val_acc'
p42
F68.96551724137932
ss(I2
I2
I3
I7
tp43
(dp44
S'train_acc'
p45
F79.94505494505495
sS'val_acc'
p46
F65.51724137931035
ss(I2
I1
I2
I2
tp47
(dp48
g23
F88.73626373626374
sg24
F65.51724137931035
ss(I7
I6
I2
I2
tp49
(dp50
S'train_acc'
p51
F61.26373626373626
sS'val_acc'
p52
F50.57471264367816
ss(I2
I1
I4
I1
tp53
(dp54
g41
F89.01098901098901
sg42
F65.51724137931035
ss(I5
I4
I3
I3
tp55
(dp56
g17
F62.362637362637365
sg18
F52.87356321839081
ss(I2
I2
I7
I5
tp57
(dp58
g45
F76.92307692307692
sg46
F63.2183908045977
ss(I2
I1
I6
I4
tp59
(dp60
g41
F80.21978021978022
sg42
F63.2183908045977
ss(I2
I2
I7
I2
tp61
(dp62
g45
F75.82417582417582
sg46
F66.66666666666667
ss(I2
I1
I6
I1
tp63
(dp64
g41
F80.21978021978022
sg42
F68.96551724137932
ss(I3
I5
I4
I2
tp65
(dp66
g3
F55.21978021978022
sg4
F47.12643678160919
ss(I2
I2
I5
I5
tp67
(dp68
g37
F79.3956043956044
sg38
F67.816091954023
ss(I2
I1
I6
I2
tp69
(dp70
g41
F89.83516483516483
sg42
F67.816091954023
ss(I5
I3
I2
I2
tp71
(dp72
g23
F68.13186813186813
sg24
F66.66666666666667
ss(I2
I2
I5
I6
tp73
(dp74
g45
F75.82417582417582
sg46
F64.36781609195403
ss(I2
I2
I5
I3
tp75
(dp76
g37
F72.25274725274726
sg38
F54.02298850574713
ss(I6
I3
I2
I2
tp77
(dp78
g51
F71.97802197802197
sg52
F60.91954022988506
ss(I3
I1
I5
I3
tp79
(dp80
S'train_acc'
p81
F84.61538461538461
sS'val_acc'
p82
F70.11494252873563
ss(I4
I5
I3
I3
tp83
(dp84
g17
F59.89010989010989
sg18
F48.275862068965516
ss(I3
I1
I3
I2
tp85
(dp86
g81
F88.46153846153847
sg82
F64.36781609195403
ss(I7
I7
I2
I2
tp87
(dp88
g51
F54.67032967032967
sg52
F49.42528735632184
ss(I3
I2
I2
I2
tp89
(dp90
g23
F78.84615384615384
sg24
F68.96551724137932
ss(I5
I4
I4
I2
tp91
(dp92
g3
F59.61538461538461
sg4
F50.57471264367816
ss(I2
I1
I5
I4
tp93
(dp94
g41
F89.01098901098901
sg42
F70.11494252873563
ss(I4
I1
I3
I2
tp95
(dp96
g7
F93.95604395604396
sg8
F72.41379310344827
ss(I3
I5
I3
I3
tp97
(dp98
g17
F58.24175824175824
sg18
F43.67816091954023
ss(I4
I1
I3
I1
tp99
(dp100
g7
F92.58241758241758
sg8
F68.96551724137932
ss(I6
I2
I2
I2
tp101
(dp102
g51
F75.0
sg52
F63.2183908045977
ss(I3
I6
I4
I2
tp103
(dp104
g3
F52.472527472527474
sg4
F44.827586206896555
ss(I7
I3
I2
I2
tp105
(dp106
g51
F71.97802197802197
sg52
F63.2183908045977
ss(I5
I1
I4
I2
tp107
(dp108
g3
F85.16483516483517
sg4
F67.816091954023
ss(I5
I2
I3
I3
tp109
(dp110
g17
F80.49450549450549
sg18
F66.66666666666667
ss(I3
I3
I2
I2
tp111
(dp112
g23
F70.87912087912088
sg24
F62.06896551724138
ss(I2
I1
I3
I5
tp113
(dp114
g41
F92.85714285714286
sg42
F66.66666666666667
ss(I2
I3
I4
I2
tp115
(dp116
g3
F61.26373626373626
sg4
F56.32183908045977
ss(I2
I2
I2
I3
tp117
(dp118
g37
F74.17582417582418
sg38
F64.36781609195403
ss(I5
I5
I4
I2
tp119
(dp120
g3
F57.69230769230769
sg4
F49.42528735632184
ss(I4
I3
I2
I2
tp121
(dp122
g23
F71.97802197802197
sg24
F56.32183908045977
ss(I4
I1
I5
I1
tp123
(dp124
g7
F89.28571428571429
sg8
F70.11494252873563
ss(I2
I1
I4
I3
tp125
(dp126
g41
F85.16483516483517
sg42
F65.51724137931035
ss(I2
I1
I3
I3
tp127
(dp128
g17
F89.83516483516483
sg18
F72.41379310344827
ss(I2
I4
I3
I3
tp129
(dp130
g17
F58.79120879120879
sg18
F51.724137931034484
ss(I3
I1
I3
I5
tp131
(dp132
g81
F89.01098901098901
sg82
F67.816091954023
ss(I4
I1
I5
I4
tp133
(dp134
g7
F88.46153846153847
sg8
F71.26436781609195
ss(I3
I1
I6
I4
tp135
(dp136
g11
F88.73626373626374
sg12
F64.36781609195403
ss(I2
I2
I6
I3
tp137
(dp138
g45
F74.45054945054945
sg46
F60.91954022988506
ss(I3
I1
I6
I3
tp139
(dp140
g11
F89.83516483516483
sg12
F64.36781609195403
ss(I7
I1
I2
I2
tp141
(dp142
g51
F88.46153846153847
sg52
F64.36781609195403
ss(I3
I4
I2
I2
tp143
(dp144
g23
F58.51648351648352
sg24
F44.827586206896555
ss(I3
I1
I4
I4
tp145
(dp146
g81
F85.98901098901099
sg82
F68.96551724137932
ss(I2
I2
I6
I5
tp147
(dp148
g45
F74.72527472527473
sg46
F64.36781609195403
ss(I2
I2
I3
I4
tp149
(dp150
g37
F76.0989010989011
sg38
F70.11494252873563
ss(I2
I2
I4
I2
tp151
(dp152
g37
F75.82417582417582
sg38
F67.816091954023
ss(I6
I3
I3
I3
tp153
(dp154
g17
F73.9010989010989
sg18
F63.2183908045977
ss(I4
I2
I2
I2
tp155
(dp156
g23
F75.27472527472527
sg24
F64.36781609195403
ss(I2
I2
I4
I5
tp157
(dp158
g37
F74.17582417582418
sg38
F67.816091954023
ss(I3
I1
I2
I3
tp159
(dp160
g81
F93.68131868131869
sg82
F68.96551724137932
ss(I5
I6
I2
I2
tp161
(dp162
g51
F56.043956043956044
sg52
F49.42528735632184
ss(I3
I1
I2
I6
tp163
(dp164
S'train_acc'
p165
F90.93406593406593
sS'val_acc'
p166
F70.11494252873563
ss(I3
I2
I3
I3
tp167
(dp168
g17
F73.07692307692308
sg18
F66.66666666666667
ss(I4
I1
I2
I1
tp169
(dp170
g7
F92.03296703296704
sg8
F70.11494252873563
ss(I3
I1
I2
I5
tp171
(dp172
g81
F93.68131868131869
sg82
F65.51724137931035
ss(I4
I1
I2
I6
tp173
(dp174
g7
F87.08791208791209
sg8
F63.2183908045977
ss(I2
I5
I2
I2
tp175
(dp176
g23
F59.61538461538461
sg24
F42.52873563218391
ss(I3
I5
I2
I2
tp177
(dp178
g23
F61.53846153846154
sg24
F48.275862068965516
ss(I4
I1
I6
I4
tp179
(dp180
g7
F85.98901098901099
sg8
F67.816091954023
ss(I4
I1
I6
I1
tp181
(dp182
g7
F85.16483516483517
sg8
F67.816091954023
ss(I4
I1
I4
I4
tp183
(dp184
g7
F87.63736263736264
sg8
F67.816091954023
ss(I2
I2
I3
I3
tp185
(dp186
g37
F76.92307692307692
sg38
F70.11494252873563
ss(I4
I1
I4
I1
tp187
(dp188
g7
F85.16483516483517
sg8
F63.2183908045977
ss(I2
I1
I2
I3
tp189
(dp190
g41
F92.58241758241758
sg42
F66.66666666666667
ss(I5
I7
I2
I2
tp191
(dp192
g51
F55.21978021978022
sg52
F50.57471264367816
ss(I4
I1
I4
I2
tp193
(dp194
g3
F92.58241758241758
sg4
F73.5632183908046
ss(I2
I2
I3
I5
tp195
(dp196
g37
F74.45054945054945
sg38
F57.47126436781609
ss(I2
I1
I4
I2
tp197
(dp198
g3
F84.61538461538461
sg4
F67.816091954023
ss(I2
I2
I2
I4
tp199
(dp200
g37
F76.64835164835165
sg38
F62.06896551724138
ss(I6
I5
I2
I2
tp201
(dp202
g51
F62.91208791208791
sg52
F54.02298850574713
ss(I3
I2
I4
I2
tp203
(dp204
g3
F78.57142857142857
sg4
F65.51724137931035
ss(I2
I1
I6
I5
tp205
(dp206
g41
F89.83516483516483
sg42
F68.96551724137932
ss(I4
I3
I3
I3
tp207
(dp208
g17
F74.45054945054945
sg18
F62.06896551724138
ss(I4
I6
I3
I3
tp209
(dp210
g17
F56.86813186813187
sg18
F49.42528735632184
ss(I2
I2
I7
I3
tp211
(dp212
g45
F78.84615384615384
sg46
F66.66666666666667
ss(I2
I1
I6
I6
tp213
(dp214
g41
F84.34065934065934
sg42
F68.96551724137932
ss(I2
I4
I2
I2
tp215
(dp216
g23
F53.02197802197802
sg24
F43.67816091954023
ss(I2
I1
I6
I3
tp217
(dp218
g41
F85.71428571428571
sg42
F60.91954022988506
ss(I2
I1
I4
I5
tp219
(dp220
g41
F92.3076923076923
sg42
F70.11494252873563
ss(I2
I2
I5
I7
tp221
(dp222
g45
F76.37362637362638
sg46
F63.2183908045977
ss(I2
I1
I4
I4
tp223
(dp224
g41
F89.83516483516483
sg42
F66.66666666666667
ss(I3
I1
I3
I6
tp225
(dp226
g165
F92.03296703296704
sg166
F66.66666666666667
ss(I3
I4
I3
I3
tp227
(dp228
g17
F60.43956043956044
sg18
F52.87356321839081
ss(I3
I1
I5
I5
tp229
(dp230
g81
F92.03296703296704
sg82
F70.11494252873563
ss(I2
I1
I2
I5
tp231
(dp232
g41
F95.6043956043956
sg42
F72.41379310344827
ss(I3
I1
I5
I6
tp233
(dp234
g165
F89.01098901098901
sg166
F63.2183908045977
ss(I6
I4
I2
I2
tp235
(dp236
g51
F60.714285714285715
sg52
F50.57471264367816
ss(I3
I3
I4
I2
tp237
(dp238
g3
F68.95604395604396
sg4
F59.770114942528735
ss(I2
I3
I2
I2
tp239
(dp240
g23
F68.13186813186813
sg24
F52.87356321839081
ss(I4
I1
I3
I6
tp241
(dp242
g7
F90.10989010989012
sg8
F68.96551724137932
ss(I2
I1
I2
I4
tp243
(dp244
g41
F89.28571428571429
sg42
F63.2183908045977
ss(I7
I4
I2
I2
tp245
(dp246
g51
F63.18681318681319
sg52
F55.172413793103445
ss(I4
I1
I3
I5
tp247
(dp248
g7
F85.43956043956044
sg8
F70.11494252873563
ss(I5
I1
I3
I3
tp249
(dp250
g17
F89.28571428571429
sg18
F65.51724137931035
ss(I5
I6
I3
I3
tp251
(dp252
g17
F54.120879120879124
sg18
F50.57471264367816
ss(I2
I6
I4
I2
tp253
(dp254
g3
F53.57142857142857
sg4
F47.12643678160919
ss(I4
I7
I2
I2
tp255
(dp256
g51
F56.59340659340659
sg52
F42.52873563218391
ss(I2
I5
I3
I3
tp257
(dp258
g17
F55.21978021978022
sg18
F45.97701149425287
ss(I2
I2
I7
I6
tp259
(dp260
g45
F75.82417582417582
sg46
F63.2183908045977
ss(I2
I2
I2
I7
tp261
(dp262
g45
F80.49450549450549
sg46
F64.36781609195403
ss(I2
I1
I3
I4
tp263
(dp264
g41
F90.65934065934066
sg42
F72.41379310344827
ss(I2
I2
I2
I2
tp265
(dp266
g23
F78.02197802197803
sg24
F65.51724137931035
ss(I7
I5
I2
I2
tp267
(dp268
g51
F59.065934065934066
sg52
F50.57471264367816
ss(I2
I2
I2
I1
tp269
(dp270
g37
F79.3956043956044
sg38
F67.816091954023
ss(I2
I1
I3
I2
tp271
(dp272
g41
F92.03296703296704
sg42
F70.11494252873563
ss(I4
I3
I4
I2
tp273
(dp274
g3
F73.07692307692308
sg4
F65.51724137931035
ss(I4
I1
I5
I3
tp275
(dp276
g7
F87.63736263736264
sg8
F68.96551724137932
ss(I2
I1
I5
I3
tp277
(dp278
g41
F84.34065934065934
sg42
F62.06896551724138
ss(I6
I5
I3
I3
tp279
(dp280
g17
F59.61538461538461
sg18
F48.275862068965516
ss(I4
I1
I5
I6
tp281
(dp282
g7
F90.10989010989012
sg8
F68.96551724137932
ss(I2
I1
I5
I6
tp283
(dp284
g41
F89.83516483516483
sg42
F74.71264367816092
ss(I4
I6
I2
I2
tp285
(dp286
g51
F54.67032967032967
sg52
F47.12643678160919
ss(I2
I2
I6
I2
tp287
(dp288
g45
F75.0
sg46
F62.06896551724138
ss(I2
I1
I5
I5
tp289
(dp290
g41
F89.01098901098901
sg42
F66.66666666666667
ss(I3
I1
I6
I2
tp291
(dp292
g11
F85.71428571428571
sg12
F63.2183908045977
ss(I2
I2
I6
I1
tp293
(dp294
g45
F75.27472527472527
sg46
F65.51724137931035
ss(I2
I1
I5
I1
tp295
(dp296
g41
F82.96703296703296
sg42
F62.06896551724138
ss(I2
I5
I4
I2
tp297
(dp298
g3
F57.142857142857146
sg4
F47.12643678160919
ss(I3
I1
I6
I1
tp299
(dp300
g165
F81.86813186813187
sg166
F68.96551724137932
ss(I2
I2
I6
I4
tp301
(dp302
g45
F76.37362637362638
sg46
F64.36781609195403
ss(I3
I1
I4
I6
tp303
(dp304
g165
F87.91208791208791
sg166
F71.26436781609195
ss(I2
I2
I4
I1
tp305
(dp306
g37
F76.64835164835165
sg38
F63.2183908045977
ss(I3
I1
I4
I1
tp307
(dp308
g81
F85.16483516483517
sg82
F65.51724137931035
ss(I2
I2
I4
I4
tp309
(dp310
g37
F74.45054945054945
sg38
F68.96551724137932
ss(I6
I6
I4
I2
tp311
(dp312
g3
F58.79120879120879
sg4
F52.87356321839081
ss(I3
I1
I2
I2
tp313
(dp314
g23
F96.42857142857143
sg24
F78.16091954022988
ss(I2
I2
I4
I7
tp315
(dp316
g45
F75.82417582417582
sg46
F67.816091954023
ss(I3
I1
I2
I1
tp317
(dp318
g81
F94.78021978021978
sg82
F74.71264367816092
ss(I4
I1
I2
I2
tp319
(dp320
g23
F91.48351648351648
sg24
F71.26436781609195
ss(I3
I1
I2
I4
tp321
(dp322
g81
F92.3076923076923
sg82
F64.36781609195403
ss(I2
I3
I3
I3
tp323
(dp324
g17
F71.7032967032967
sg18
F62.06896551724138
ss(I2
I6
I3
I3
tp325
(dp326
g17
F53.02197802197802
sg18
F48.275862068965516
ss(I4
I1
I2
I4
tp327
(dp328
g7
F90.93406593406593
sg8
F67.816091954023
ss(I5
I1
I2
I2
tp329
(dp330
g23
F85.16483516483517
sg24
F68.96551724137932
ss(I2
I4
I4
I2
tp331
(dp332
g3
F54.395604395604394
sg4
F50.57471264367816
ss(I4
I1
I6
I5
tp333
(dp334
g7
F86.81318681318682
sg8
F71.26436781609195
ss(I6
I1
I2
I2
tp335
(dp336
g51
F94.23076923076923
sg52
F70.11494252873563
ss(I4
I1
I6
I2
tp337
(dp338
g7
F88.73626373626374
sg8
F66.66666666666667
ss(I4
I1
I4
I5
tp339
(dp340
g7
F83.79120879120879
sg8
F62.06896551724138
ss(I4
I1
I4
I6
tp341
(dp342
g7
F85.71428571428571
sg8
F64.36781609195403
ss(I2
I2
I3
I1
tp343
(dp344
g37
F77.74725274725274
sg38
F65.51724137931035
ss(I2
I1
I4
I6
tp345
(dp346
g41
F89.83516483516483
sg42
F68.96551724137932
ss(I6
I6
I3
I3
tp347
(dp348
g17
F56.31868131868132
sg18
F54.02298850574713
ss(I4
I1
I4
I3
tp349
(dp350
g7
F88.73626373626374
sg8
F70.11494252873563
ss(I2
I2
I3
I6
tp351
(dp352
g45
F76.0989010989011
sg46
F64.36781609195403
ss(I3
I1
I3
I3
tp353
(dp354
g81
F92.3076923076923
sg82
F67.816091954023
ss(I4
I5
I4
I2
tp355
(dp356
g3
F53.02197802197802
sg4
F42.52873563218391
ss(I2
I2
I7
I7
tp357
(dp358
g45
F72.52747252747253
sg46
F59.770114942528735
ss(I2
I1
I2
I6
tp359
(dp360
g41
F92.03296703296704
sg42
F64.36781609195403
ss(I6
I5
I4
I2
tp361
(dp362
g3
F57.967032967032964
sg4
F47.12643678160919
ss(I2
I2
I7
I4
tp363
(dp364
g45
F72.25274725274726
sg46
F66.66666666666667
ss(I2
I2
I6
I6
tp365
(dp366
g45
F73.62637362637362
sg46
F62.06896551724138
ss(I2
I2
I7
I1
tp367
(dp368
g45
F74.17582417582418
sg46
F63.2183908045977
ss(I7
I2
I2
I2
tp369
(dp370
g51
F74.45054945054945
sg52
F59.770114942528735
ss(I2
I2
I5
I4
tp371
(dp372
g37
F76.92307692307692
sg38
F64.36781609195403
ss(I5
I2
I4
I2
tp373
(dp374
g3
F77.74725274725274
sg4
F66.66666666666667
ss(I4
I5
I2
I2
tp375
(dp376
g23
F60.16483516483517
sg24
F49.42528735632184
ss(I2
I7
I2
I2
tp377
(dp378
g51
F52.1978021978022
sg52
F43.67816091954023
ss(I2
I2
I5
I1
tp379
(dp380
g37
F76.0989010989011
sg38
F65.51724137931035
ss(I6
I3
I4
I2
tp381
(dp382
g3
F64.83516483516483
sg4
F56.32183908045977
ss(I3
I1
I5
I1
tp383
(dp384
g81
F90.65934065934066
sg82
F67.816091954023
ss(I2
I2
I5
I2
tp385
(dp386
g37
F77.74725274725274
sg38
F64.36781609195403
ss(I5
I5
I3
I3
tp387
(dp388
g17
F58.51648351648352
sg18
F47.12643678160919
ss(I3
I1
I3
I4
tp389
(dp390
g81
F89.56043956043956
sg82
F73.5632183908046
ss(I3
I1
I3
I1
tp391
(dp392
g81
F93.4065934065934
sg82
F73.5632183908046
ss(I4
I2
I3
I3
tp393
(dp394
g17
F76.64835164835165
sg18
F66.66666666666667
ss(I6
I4
I4
I2
tp395
(dp396
g3
F53.02197802197802
sg4
F45.97701149425287
ss(I3
I1
I4
I5
tp397
(dp398
g81
F89.01098901098901
sg82
F65.51724137931035
ss(I4
I1
I3
I4
tp399
(dp400
g7
F90.93406593406593
sg8
F70.11494252873563
ss(I6
I7
I2
I2
tp401
(dp402
g51
F58.24175824175824
sg52
F47.12643678160919
ss(I4
I1
I3
I3
tp403
(dp404
g7
F88.18681318681318
sg8
F68.96551724137932
ss(I4
I4
I3
I3
tp405
(dp406
g17
F61.53846153846154
sg18
F51.724137931034484
ss(I5
I3
I4
I2
tp407
(dp408
g3
F70.32967032967034
sg4
F66.66666666666667
ss(I2
I6
I2
I2
tp409
(dp410
g51
F56.043956043956044
sg52
F47.12643678160919
ss(I6
I2
I4
I2
tp411
(dp412
g3
F81.5934065934066
sg4
F70.11494252873563
ss(I4
I6
I4
I2
tp413
(dp414
g3
F56.59340659340659
sg4
F47.12643678160919
ss(I3
I6
I2
I2
tp415
(dp416
g51
F55.21978021978022
sg52
F50.57471264367816
ss(I3
I1
I5
I2
tp417
(dp418
g81
F90.10989010989012
sg82
F73.5632183908046
ss(I6
I4
I3
I3
tp419
(dp420
g17
F60.714285714285715
sg18
F51.724137931034484
ss(I6
I1
I3
I3
tp421
(dp422
g17
F88.73626373626374
sg18
F62.06896551724138
ss(I2
I2
I2
I6
tp423
(dp424
g45
F77.74725274725274
sg46
F60.91954022988506
ss(I2
I2
I2
I5
tp425
(dp426
g37
F81.31868131868131
sg38
F65.51724137931035
ss(I2
I1
I3
I6
tp427
(dp428
g41
F89.56043956043956
sg42
F67.816091954023
ss(I5
I4
I2
I2
tp429
(dp430
g23
F57.69230769230769
sg24
F47.12643678160919
ss(I3
I1
I5
I4
tp431
(dp432
g81
F88.73626373626374
sg82
F68.96551724137932
ss(I2
I1
I3
I1
tp433
(dp434
g41
F90.65934065934066
sg42
F66.66666666666667
ss(I6
I6
I2
I2
tp435
(dp436
g51
F61.53846153846154
sg52
F50.57471264367816
ss(I4
I1
I5
I2
tp437
(dp438
g7
F92.58241758241758
sg8
F64.36781609195403
ss(I2
I1
I5
I2
tp439
(dp440
g41
F84.89010989010988
sg42
F65.51724137931035
ss(I4
I1
I5
I5
tp441
(dp442
g7
F89.83516483516483
sg8
F71.26436781609195
ss(I3
I1
I4
I2
tp443
(dp444
g81
F89.83516483516483
sg82
F64.36781609195403
ss(I4
I4
I4
I2
tp445
(dp446
g3
F57.142857142857146
sg4
F50.57471264367816
ss(I5
I3
I3
I3
tp447
(dp448
g17
F71.97802197802197
sg18
F63.2183908045977
ss(I3
I7
I2
I2
tp449
(dp450
g51
F54.94505494505494
sg52
F44.827586206896555
ss(I3
I1
I6
I5
tp451
(dp452
g11
F85.71428571428571
sg12
F65.51724137931035
ss(I2
I2
I6
I7
tp453
(dp454
g45
F70.87912087912088
sg46
F58.62068965517241
ss(I6
I1
I4
I2
tp455
(dp456
g3
F87.63736263736264
sg4
F65.51724137931035
ss(I4
I2
I4
I2
tp457
(dp458
g3
F78.2967032967033
sg4
F60.91954022988506
ss(I2
I2
I4
I3
tp459
(dp460
g37
F77.74725274725274
sg38
F66.66666666666667
ss(I5
I5
I2
I2
tp461
(dp462
g23
F59.61538461538461
sg24
F48.275862068965516
ss(I3
I1
I4
I3
tp463
(dp464
g81
F87.36263736263736
sg82
F62.06896551724138
ss(I2
I2
I4
I6
tp465
(dp466
g45
F74.45054945054945
sg46
F64.36781609195403
ss.